target datalayout = "e-m:e-p270:32:32-p271:32:32-p272:64:64-i64:64-i128:128-f80:128-n8:16:32:64-S128"
target triple = "x86_64-unknown-linux-gnu"

%"struct.std::_Vector_base" = type { %"struct.std::_Vector_base<ClipperLib::IntPoint, std::allocator<ClipperLib::IntPoint>>::_Vector_impl" }
%"struct.std::_Vector_base<ClipperLib::IntPoint, std::allocator<ClipperLib::IntPoint>>::_Vector_impl" = type { %"struct.std::_Vector_base<ClipperLib::IntPoint, std::allocator<ClipperLib::IntPoint>>::_Vector_impl_data" }
%"struct.std::_Vector_base<ClipperLib::IntPoint, std::allocator<ClipperLib::IntPoint>>::_Vector_impl_data" = type { ptr, ptr, ptr }
%"struct.ClipperLib::IntPoint" = type { i64, i64 }

; Function Attrs: mustprogress nounwind uwtable
define linkonce_odr hidden noundef nonnull align 8 dereferenceable(16) ptr @_ZNKSt6vectorIN10ClipperLib8IntPointESaIS1_EEixEm(ptr noundef nonnull align 8 dereferenceable(24) %this, i64 noundef %__n) #1 comdat align 2 {
entry:
  %this.addr = alloca ptr, align 8
  %__n.addr = alloca i64, align 8
  store ptr %this, ptr %this.addr, align 8
  store i64 %__n, ptr %__n.addr, align 8
  %this1 = load ptr, ptr %this.addr, align 8
  %_M_impl = getelementptr inbounds %"struct.std::_Vector_base", ptr %this1, i32 0, i32 0
  %_M_start = getelementptr inbounds %"struct.std::_Vector_base<ClipperLib::IntPoint, std::allocator<ClipperLib::IntPoint>>::_Vector_impl_data", ptr %_M_impl, i32 0, i32 0
  %0 = load ptr, ptr %_M_start, align 8
  %1 = load i64, ptr %__n.addr, align 8
  %add.ptr = getelementptr inbounds %"struct.ClipperLib::IntPoint", ptr %0, i64 %1
  ret ptr %add.ptr
}

; Function Attrs: mustprogress nounwind uwtable
define linkonce_odr hidden noundef i64 @_ZNKSt6vectorIN10ClipperLib8IntPointESaIS1_EE4sizeEv(ptr noundef nonnull align 8 dereferenceable(24) %this) #1 comdat align 2 {
entry:
  %this.addr = alloca ptr, align 8
  store ptr %this, ptr %this.addr, align 8
  %this1 = load ptr, ptr %this.addr, align 8
  %_M_impl = getelementptr inbounds %"struct.std::_Vector_base", ptr %this1, i32 0, i32 0
  %_M_finish = getelementptr inbounds %"struct.std::_Vector_base<ClipperLib::IntPoint, std::allocator<ClipperLib::IntPoint>>::_Vector_impl_data", ptr %_M_impl, i32 0, i32 1
  %0 = load ptr, ptr %_M_finish, align 8
  %_M_impl2 = getelementptr inbounds %"struct.std::_Vector_base", ptr %this1, i32 0, i32 0
  %_M_start = getelementptr inbounds %"struct.std::_Vector_base<ClipperLib::IntPoint, std::allocator<ClipperLib::IntPoint>>::_Vector_impl_data", ptr %_M_impl2, i32 0, i32 0
  %1 = load ptr, ptr %_M_start, align 8
  %sub.ptr.lhs.cast = ptrtoint ptr %0 to i64
  %sub.ptr.rhs.cast = ptrtoint ptr %1 to i64
  %sub.ptr.sub = sub i64 %sub.ptr.lhs.cast, %sub.ptr.rhs.cast
  %sub.ptr.div = sdiv exact i64 %sub.ptr.sub, 16
  ret i64 %sub.ptr.div
}

; Function Attrs: mustprogress nounwind uwtable
define hidden noundef double @_ZN10ClipperLib4AreaERKSt6vectorINS_8IntPointESaIS1_EE(ptr noundef nonnull align 8 dereferenceable(24) %poly) #1 {
entry:
  %retval = alloca double, align 8
  %poly.addr = alloca ptr, align 8
  %size = alloca i32, align 4
  %a = alloca double, align 8
  %i = alloca i32, align 4
  %j = alloca i32, align 4
  store ptr %poly, ptr %poly.addr, align 8
  %0 = load ptr, ptr %poly.addr, align 8
  %call = call noundef i64 @_ZNKSt6vectorIN10ClipperLib8IntPointESaIS1_EE4sizeEv(ptr noundef nonnull align 8 dereferenceable(24) %0) #13
  %conv = trunc i64 %call to i32
  store i32 %conv, ptr %size, align 4
  %1 = load i32, ptr %size, align 4
  %cmp = icmp slt i32 %1, 3
  br i1 %cmp, label %if.then, label %if.end

if.then:                                          ; preds = %entry
  store double 0.000000e+00, ptr %retval, align 8
  br label %return

if.end:                                           ; preds = %entry
  store double 0.000000e+00, ptr %a, align 8
  store i32 0, ptr %i, align 4
  %2 = load i32, ptr %size, align 4
  %sub = sub nsw i32 %2, 1
  store i32 %sub, ptr %j, align 4
  br label %for.cond

for.cond:                                         ; preds = %for.inc, %if.end
  %3 = load i32, ptr %i, align 4
  %4 = load i32, ptr %size, align 4
  %cmp1 = icmp slt i32 %3, %4
  br i1 %cmp1, label %for.body, label %for.end

for.body:                                         ; preds = %for.cond
  %5 = load ptr, ptr %poly.addr, align 8
  %6 = load i32, ptr %j, align 4
  %conv2 = sext i32 %6 to i64
  %call3 = call noundef nonnull align 8 dereferenceable(16) ptr @_ZNKSt6vectorIN10ClipperLib8IntPointESaIS1_EEixEm(ptr noundef nonnull align 8 dereferenceable(24) %5, i64 noundef %conv2) #13
  %X = getelementptr inbounds %"struct.ClipperLib::IntPoint", ptr %call3, i32 0, i32 0
  %7 = load i64, ptr %X, align 8
  %conv4 = sitofp i64 %7 to double
  %8 = load ptr, ptr %poly.addr, align 8
  %9 = load i32, ptr %i, align 4
  %conv5 = sext i32 %9 to i64
  %call6 = call noundef nonnull align 8 dereferenceable(16) ptr @_ZNKSt6vectorIN10ClipperLib8IntPointESaIS1_EEixEm(ptr noundef nonnull align 8 dereferenceable(24) %8, i64 noundef %conv5) #13
  %X7 = getelementptr inbounds %"struct.ClipperLib::IntPoint", ptr %call6, i32 0, i32 0
  %10 = load i64, ptr %X7, align 8
  %conv8 = sitofp i64 %10 to double
  %add = fadd double %conv4, %conv8
  %11 = load ptr, ptr %poly.addr, align 8
  %12 = load i32, ptr %j, align 4
  %conv9 = sext i32 %12 to i64
  %call10 = call noundef nonnull align 8 dereferenceable(16) ptr @_ZNKSt6vectorIN10ClipperLib8IntPointESaIS1_EEixEm(ptr noundef nonnull align 8 dereferenceable(24) %11, i64 noundef %conv9) #13
  %Y = getelementptr inbounds %"struct.ClipperLib::IntPoint", ptr %call10, i32 0, i32 1
  %13 = load i64, ptr %Y, align 8
  %conv11 = sitofp i64 %13 to double
  %14 = load ptr, ptr %poly.addr, align 8
  %15 = load i32, ptr %i, align 4
  %conv12 = sext i32 %15 to i64
  %call13 = call noundef nonnull align 8 dereferenceable(16) ptr @_ZNKSt6vectorIN10ClipperLib8IntPointESaIS1_EEixEm(ptr noundef nonnull align 8 dereferenceable(24) %14, i64 noundef %conv12) #13
  %Y14 = getelementptr inbounds %"struct.ClipperLib::IntPoint", ptr %call13, i32 0, i32 1
  %16 = load i64, ptr %Y14, align 8
  %conv15 = sitofp i64 %16 to double
  %sub16 = fsub double %conv11, %conv15
  %17 = load double, ptr %a, align 8
  %18 = call double @llvm.fmuladd.f64(double %add, double %sub16, double %17)
  store double %18, ptr %a, align 8
  %19 = load i32, ptr %i, align 4
  store i32 %19, ptr %j, align 4
  br label %for.inc

for.inc:                                          ; preds = %for.body
  %20 = load i32, ptr %i, align 4
  %inc = add nsw i32 %20, 1
  store i32 %inc, ptr %i, align 4
  br label %for.cond, !llvm.loop !7

for.end:                                          ; preds = %for.cond
  %21 = load double, ptr %a, align 8
  %fneg = fneg double %21
  %mul = fmul double %fneg, 5.000000e-01
  store double %mul, ptr %retval, align 8
  br label %return

return:                                           ; preds = %for.end, %if.then
  %22 = load double, ptr %retval, align 8
  ret double %22
}

; Function Attrs: mustprogress uwtable
define hidden noundef zeroext i1 @_ZN10ClipperLib11OrientationERKSt6vectorINS_8IntPointESaIS1_EE(ptr noundef nonnull align 8 dereferenceable(24) %poly) #0 {
entry:
  %poly.addr = alloca ptr, align 8
  store ptr %poly, ptr %poly.addr, align 8
  %0 = load ptr, ptr %poly.addr, align 8
  %call = call noundef double @_ZN10ClipperLib4AreaERKSt6vectorINS_8IntPointESaIS1_EE(ptr noundef nonnull align 8 dereferenceable(24) %0)
  %cmp = fcmp oge double %call, 0.000000e+00
  ret i1 %cmp
}