; Function Attrs: mustprogress nofree norecurse nosync nounwind willreturn memory(read, inaccessiblemem: none) uwtable
define hidden noundef zeroext i1 @_ZN10ClipperLib11OrientationERKSt6vectorINS_8IntPointESaIS1_EE(ptr nocapture noundef nonnull readonly align 8 dereferenceable(24) %poly) local_unnamed_addr #1 {
entry:
  %_M_finish.i.i = getelementptr inbounds i8, ptr %poly, i64 8
  %0 = load ptr, ptr %_M_finish.i.i, align 8
  %1 = load ptr, ptr %poly, align 8
  %sub.ptr.lhs.cast.i.i = ptrtoint ptr %0 to i64
  %sub.ptr.rhs.cast.i.i = ptrtoint ptr %1 to i64
  %sub.ptr.sub.i.i = sub i64 %sub.ptr.lhs.cast.i.i, %sub.ptr.rhs.cast.i.i
  %sub.ptr.div.i.i = lshr exact i64 %sub.ptr.sub.i.i, 4
  %conv.i = trunc i64 %sub.ptr.div.i.i to i32
  %cmp.i = icmp slt i32 %conv.i, 3
  br i1 %cmp.i, label %_ZN10ClipperLib4AreaERKSt6vectorINS_8IntPointESaIS1_EE.exit, label %if.end.i

if.end.i:                                         ; preds = %entry
  %sub.i = add nsw i64 %sub.ptr.div.i.i, -1
  %wide.trip.count.i = and i64 %sub.ptr.div.i.i, 2147483647
  br label %for.body.i

for.body.i:                                       ; preds = %for.body.i, %if.end.i
  %indvars.iv.i = phi i64 [ 0, %if.end.i ], [ %indvars.iv.next.i, %for.body.i ]
  %j.018.i = phi i64 [ %sub.i, %if.end.i ], [ %indvars.iv.i, %for.body.i ]
  %a.016.i = phi double [ 0.000000e+00, %if.end.i ], [ %6, %for.body.i ]
  %sext.i = shl i64 %j.018.i, 32
  %conv2.i = ashr exact i64 %sext.i, 32
  %add.ptr.i.i = getelementptr inbounds %"struct.ClipperLib::IntPoint", ptr %1, i64 %conv2.i
  %2 = load i64, ptr %add.ptr.i.i, align 8
  %conv4.i = sitofp i64 %2 to double
  %add.ptr.i13.i = getelementptr inbounds %"struct.ClipperLib::IntPoint", ptr %1, i64 %indvars.iv.i
  %3 = load i64, ptr %add.ptr.i13.i, align 8
  %conv8.i = sitofp i64 %3 to double
  %add.i = fadd double %conv4.i, %conv8.i
  %Y.i = getelementptr inbounds i8, ptr %add.ptr.i.i, i64 8
  %4 = load i64, ptr %Y.i, align 8
  %conv11.i = sitofp i64 %4 to double
  %Y14.i = getelementptr inbounds i8, ptr %add.ptr.i13.i, i64 8
  %5 = load i64, ptr %Y14.i, align 8
  %conv15.i = sitofp i64 %5 to double
  %sub16.i = fsub double %conv11.i, %conv15.i
  %6 = tail call double @llvm.fmuladd.f64(double %add.i, double %sub16.i, double %a.016.i)
  %indvars.iv.next.i = add nuw nsw i64 %indvars.iv.i, 1
  %exitcond.not.i = icmp eq i64 %indvars.iv.next.i, %wide.trip.count.i
  br i1 %exitcond.not.i, label %for.end.i, label %for.body.i, !llvm.loop !7

for.end.i:                                        ; preds = %for.body.i
  %mul.i = fmul double %6, -5.000000e-01
  %7 = fcmp oge double %mul.i, 0.000000e+00
  br label %_ZN10ClipperLib4AreaERKSt6vectorINS_8IntPointESaIS1_EE.exit

_ZN10ClipperLib4AreaERKSt6vectorINS_8IntPointESaIS1_EE.exit: ; preds = %entry, %for.end.i
  %retval.0.i = phi i1 [ %7, %for.end.i ], [ true, %entry ]
  ret i1 %retval.0.i
}